#include <math.h>
#include <stdio.h>
#include <stdlib.h>
#include <string.h>
#include <iostream>
using namespace std;

//************************************************************************
//*???2-1.cpp                                                         
//*????????                                                       
//*??????                                                          
//*???2013?12?5?                                                   
//************************************************************************
int n, k;
int putapple(int , int);         //?????????????????????????????
int main()
{
	int  m, s;
	cin >> n >> k;
	for(m = n + 1; ; m++)          //??????????????????????n+1??????????????
	{	
		s = putapple(n, m);       
		if(s >= 1)                //????????????????????????????????????????m??????
		{	cout << m << endl;
			break;
		}
		else                      //???????????????
			continue;
	}
	return 0;
}
int putapple(int p, int q)
{
	if( q % n == k)             //????????n??????k????????
	{
		if( p > 1)
			return putapple(p - 1, (q - k) / n * (n - 1)); //?????????????
		else
			return ((q - k)/n);  //???????????????????
	}
	else                     //??????????????????????????
		return -1;
}
